Certificate:
    Data:
        Version: 3 (0x2)
        Serial Number: 0 (0x0)
        Signature Algorithm: ecdsa-with-SHA1
        Issuer: C=JP, ST=Tokyo, L=Shinjuku-ku, O=Diverta Inc., OU=Provisional CA, CN=ca.diverta.co.jp
        Validity
            Not Before: Feb 12 03:49:55 2020 GMT
            Not After : Feb  9 03:49:55 2030 GMT
        Subject: C=JP, ST=Tokyo, O=Diverta Inc., OU=Authenticator Attestation, CN=authr.diverta.co.jp
        Subject Public Key Info:
            Public Key Algorithm: id-ecPublicKey
            EC Public Key:
                pub: 
                    04:90:99:23:34:d1:db:65:29:f3:da:89:52:42:33:
                    fb:f6:3c:a5:25:02:e3:41:91:e8:a5:16:6f:3f:cc:
                    32:f3:3b:30:bd:98:bb:85:6f:75:85:05:e7:81:4e:
                    19:57:65:c2:df:9b:be:2b:20:7a:e8:aa:21:b2:bd:
                    fc:1b:13:77:1f
                ASN1 OID: prime256v1
        X509v3 extensions:
            X509v3 Basic Constraints: 
                CA:FALSE
            X509v3 Key Usage: critical
                Digital Signature, Key Encipherment
            X509v3 Extended Key Usage: 
                TLS Web Client Authentication
            X509v3 Subject Alternative Name: 
                DNS:diverta.co.jp, DNS:ca.diverta.co.jp
    Signature Algorithm: ecdsa-with-SHA1
        30:46:02:21:00:aa:70:2e:05:68:d5:4a:82:9d:25:cf:89:f7:
        43:c4:86:60:ec:74:65:61:e0:93:6f:84:56:c1:8d:04:ba:82:
        3d:02:21:00:b5:cc:dd:5e:20:38:ea:5b:a9:26:13:94:5c:91:
        39:ac:6e:71:4c:29:73:4b:68:d2:06:55:ef:b6:4a:ab:49:af
-----BEGIN CERTIFICATE-----
MIICQDCCAeagAwIBAgIBADAJBgcqhkjOPQQBMH4xCzAJBgNVBAYTAkpQMQ4wDAYD
VQQIEwVUb2t5bzEUMBIGA1UEBxMLU2hpbmp1a3Uta3UxFTATBgNVBAoTDERpdmVy
dGEgSW5jLjEXMBUGA1UECxMOUHJvdmlzaW9uYWwgQ0ExGTAXBgNVBAMTEGNhLmRp
dmVydGEuY28uanAwHhcNMjAwMjEyMDM0OTU1WhcNMzAwMjA5MDM0OTU1WjB2MQsw
CQYDVQQGEwJKUDEOMAwGA1UECBMFVG9reW8xFTATBgNVBAoTDERpdmVydGEgSW5j
LjEiMCAGA1UECxMZQXV0aGVudGljYXRvciBBdHRlc3RhdGlvbjEcMBoGA1UEAxMT
YXV0aHIuZGl2ZXJ0YS5jby5qcDBZMBMGByqGSM49AgEGCCqGSM49AwEHA0IABJCZ
IzTR22Up89qJUkIz+/Y8pSUC40GR6KUWbz/MMvM7ML2Yu4VvdYUF54FOGVdlwt+b
visgeuiqIbK9/BsTdx+jXjBcMAkGA1UdEwQCMAAwDgYDVR0PAQH/BAQDAgWgMBMG
A1UdJQQMMAoGCCsGAQUFBwMCMCoGA1UdEQQjMCGCDWRpdmVydGEuY28uanCCEGNh
LmRpdmVydGEuY28uanAwCQYHKoZIzj0EAQNJADBGAiEAqnAuBWjVSoKdJc+J90PE
hmDsdGVh4JNvhFbBjQS6gj0CIQC1zN1eIDjqW6kmE5RckTmsbnFMKXNLaNIGVe+2
SqtJrw==
-----END CERTIFICATE-----
