Certificate:
    Data:
        Version: 3 (0x2)
        Serial Number: 0 (0x0)
        Signature Algorithm: ecdsa-with-SHA1
        Issuer: C=JP, ST=Tokyo, L=Shinjuku-ku, O=Diverta Inc., OU=Provisional CA, CN=ca.diverta.co.jp
        Validity
            Not Before: Jan 28 02:57:30 2019 GMT
            Not After : Jan 28 02:57:30 2020 GMT
        Subject: C=JP, ST=Tokyo, O=Diverta Inc., OU=Authenticator Attestation, CN=authr.diverta.co.jp
        Subject Public Key Info:
            Public Key Algorithm: id-ecPublicKey
            EC Public Key:
                pub: 
                    04:90:99:23:34:d1:db:65:29:f3:da:89:52:42:33:
                    fb:f6:3c:a5:25:02:e3:41:91:e8:a5:16:6f:3f:cc:
                    32:f3:3b:30:bd:98:bb:85:6f:75:85:05:e7:81:4e:
                    19:57:65:c2:df:9b:be:2b:20:7a:e8:aa:21:b2:bd:
                    fc:1b:13:77:1f
                ASN1 OID: prime256v1
        X509v3 extensions:
            X509v3 Basic Constraints: 
                CA:FALSE
            X509v3 Key Usage: critical
                Digital Signature, Key Encipherment
            X509v3 Extended Key Usage: 
                TLS Web Client Authentication
            X509v3 Subject Alternative Name: 
                DNS:diverta.co.jp, DNS:ca.diverta.co.jp
    Signature Algorithm: ecdsa-with-SHA1
        30:45:02:20:64:e8:ce:ff:97:03:12:2b:01:83:47:bb:79:83:
        3b:62:63:1c:2b:30:cb:e8:6f:bc:d0:34:58:3c:16:a1:a9:8c:
        02:21:00:fb:b6:30:a5:ef:b4:09:89:7b:94:d0:9d:6e:26:26:
        85:f9:49:8f:05:5a:3d:a8:c3:27:59:09:5d:bc:6e:e4:fa
-----BEGIN CERTIFICATE-----
MIICPzCCAeagAwIBAgIBADAJBgcqhkjOPQQBMH4xCzAJBgNVBAYTAkpQMQ4wDAYD
VQQIEwVUb2t5bzEUMBIGA1UEBxMLU2hpbmp1a3Uta3UxFTATBgNVBAoTDERpdmVy
dGEgSW5jLjEXMBUGA1UECxMOUHJvdmlzaW9uYWwgQ0ExGTAXBgNVBAMTEGNhLmRp
dmVydGEuY28uanAwHhcNMTkwMTI4MDI1NzMwWhcNMjAwMTI4MDI1NzMwWjB2MQsw
CQYDVQQGEwJKUDEOMAwGA1UECBMFVG9reW8xFTATBgNVBAoTDERpdmVydGEgSW5j
LjEiMCAGA1UECxMZQXV0aGVudGljYXRvciBBdHRlc3RhdGlvbjEcMBoGA1UEAxMT
YXV0aHIuZGl2ZXJ0YS5jby5qcDBZMBMGByqGSM49AgEGCCqGSM49AwEHA0IABJCZ
IzTR22Up89qJUkIz+/Y8pSUC40GR6KUWbz/MMvM7ML2Yu4VvdYUF54FOGVdlwt+b
visgeuiqIbK9/BsTdx+jXjBcMAkGA1UdEwQCMAAwDgYDVR0PAQH/BAQDAgWgMBMG
A1UdJQQMMAoGCCsGAQUFBwMCMCoGA1UdEQQjMCGCDWRpdmVydGEuY28uanCCEGNh
LmRpdmVydGEuY28uanAwCQYHKoZIzj0EAQNIADBFAiBk6M7/lwMSKwGDR7t5gzti
YxwrMMvob7zQNFg8FqGpjAIhAPu2MKXvtAmJe5TQnW4mJoX5SY8FWj2owydZCV28
buT6
-----END CERTIFICATE-----
